; Disassembly of the file "D:\Users\tomys\Downloads\CED-80 ROM\CEDM-80.BIN"
; 
; CPU Type: Z80
; 
; Created with dZ80 2.0
; 
; on Friday, 02 of February 2024 at 08:01 PM
; 
0000 310028    ld      sp,2800h
0003 c5        push    bc
0004 d5        push    de
0005 e5        push    hl
0006 f5        push    af
0007 21e627    ld      hl,27e6h
000a 3619      ld      (hl),19h
000c 215c00    ld      hl,005ch
000f 11e727    ld      de,27e7h
0012 010600    ld      bc,0006h
0015 edb0      ldir    
0017 31e427    ld      sp,27e4h
001a 21e727    ld      hl,27e7h
001d 0600      ld      b,00h
001f 1e06      ld      e,06h
0021 3e01      ld      a,01h
0023 cd9000    call    0090h
0026 79        ld      a,c
0027 87        add     a,a
0028 1d        dec     e
0029 c22300    jp      nz,0023h
002c 78        ld      a,b
002d fe00      cp      00h
002f ca1700    jp      z,0017h
0032 21e727    ld      hl,27e7h
0035 cd9c00    call    009ch
0038 7a        ld      a,d
0039 d303      out     (03h),a
003b db01      in      a,(01h)
003d fe00      cp      00h
003f c23200    jp      nz,0032h
0042 cdbd00    call    00bdh
0045 cdd800    call    00d8h
0048 fe13      cp      13h
004a ca7700    jp      z,0077h
004d fe10      cp      10h
004f da8300    jp      c,0083h
0052 cdf000    call    00f0h
0055 21e627    ld      hl,27e6h
0058 7e        ld      a,(hl)
0059 c36900    jp      0069h
005c c686      add     a,86h
005e a1        and     c
005f aa        xor     d
0060 80        add     a,b
0061 c0        ret     nz

0062 ff        rst     38h
0063 ff        rst     38h
0064 ff        rst     38h
0065 ff        rst     38h
0066 c35003    jp      0350h
0069 212003    ld      hl,0320h
006c 85        add     a,l
006d 6f        ld      l,a
006e 7e        ld      a,(hl)
006f 4f        ld      c,a
0070 3e0a      ld      a,0ah
0072 85        add     a,l
0073 6f        ld      l,a
0074 6e        ld      l,(hl)
0075 61        ld      h,c
0076 e9        jp      (hl)
0077 21e627    ld      hl,27e6h
007a 7e        ld      a,(hl)
007b fe15      cp      15h
007d caf401    jp      z,01f4h
0080 c35200    jp      0052h
0083 21e627    ld      hl,27e6h
0086 7e        ld      a,(hl)
0087 fe15      cp      15h
0089 ca0502    jp      z,0205h
008c 00        nop     
008d c35500    jp      0055h
0090 4f        ld      c,a
0091 cda900    call    00a9h
0094 db01      in      a,(01h)
0096 fe00      cp      00h
0098 c8        ret     z

0099 47        ld      b,a
009a 51        ld      d,c
009b c9        ret     

009c 0e06      ld      c,06h
009e 3e01      ld      a,01h
00a0 cda900    call    00a9h
00a3 87        add     a,a
00a4 0d        dec     c
00a5 c8        ret     z

00a6 c3a000    jp      00a0h
00a9 f5        push    af
00aa d303      out     (03h),a
00ac 7e        ld      a,(hl)
00ad d301      out     (01h),a
00af d9        exx     
00b0 110001    ld      de,0100h
00b3 1b        dec     de
00b4 7a        ld      a,d
00b5 b3        or      e
00b6 c2b300    jp      nz,00b3h
00b9 d9        exx     
00ba 23        inc     hl
00bb f1        pop     af
00bc c9        ret     

00bd 0e00      ld      c,00h
00bf 3e01      ld      a,01h
00c1 ba        cp      d
00c2 cad600    jp      z,00d6h
00c5 87        add     a,a
00c6 0e08      ld      c,08h
00c8 ba        cp      d
00c9 cad600    jp      z,00d6h
00cc 87        add     a,a
00cd 0e10      ld      c,10h
00cf ba        cp      d
00d0 cad600    jp      z,00d6h
00d3 c31700    jp      0017h
00d6 51        ld      d,c
00d7 c9        ret     

00d8 1e08      ld      e,08h
00da 0e00      ld      c,00h
00dc 3e01      ld      a,01h
00de b8        cp      b
00df caeb00    jp      z,00ebh
00e2 0c        inc     c
00e3 87        add     a,a
00e4 1d        dec     e
00e5 c2de00    jp      nz,00deh
00e8 c31700    jp      0017h
00eb 79        ld      a,c
00ec 82        add     a,d
00ed 47        ld      b,a
00ee c9        ret     

00ef 00        nop     
00f0 21e627    ld      hl,27e6h
00f3 70        ld      (hl),b
00f4 c9        ret     

00f5 0e06      ld      c,06h
00f7 21e627    ld      hl,27e6h
00fa 3617      ld      (hl),17h
00fc 23        inc     hl
00fd 36ff      ld      (hl),0ffh
00ff 23        inc     hl
0100 0d        dec     c
0101 c2fd00    jp      nz,00fdh
0104 3600      ld      (hl),00h
0106 23        inc     hl
0107 3600      ld      (hl),00h
0109 23        inc     hl
010a 3600      ld      (hl),00h
010c c31700    jp      0017h
010f 21ee27    ld      hl,27eeh
0112 78        ld      a,b
0113 ed6f      rld     
0115 23        inc     hl
0116 ed6f      rld     
0118 cd5201    call    0152h
011b c31700    jp      0017h
011e cd4001    call    0140h
0121 21e627    ld      hl,27e6h
0124 3618      ld      (hl),18h
0126 21ef27    ld      hl,27efh
0129 cd5201    call    0152h
012c c31700    jp      0017h
012f cd4001    call    0140h
0132 78        ld      a,b
0133 ed6f      rld     
0135 7e        ld      a,(hl)
0136 12        ld      (de),a
0137 21ef27    ld      hl,27efh
013a cd5201    call    0152h
013d c31700    jp      0017h
0140 21ee27    ld      hl,27eeh
0143 5e        ld      e,(hl)
0144 23        inc     hl
0145 56        ld      d,(hl)
0146 1a        ld      a,(de)
0147 2b        dec     hl
0148 2b        dec     hl
0149 77        ld      (hl),a
014a e5        push    hl
014b 21e627    ld      hl,27e6h
014e 3618      ld      (hl),18h
0150 e1        pop     hl
0151 c9        ret     

0152 01e727    ld      bc,27e7h
0155 cd6e01    call    016eh
0158 2b        dec     hl
0159 cd6e01    call    016eh
015c 2b        dec     hl
015d cd6e01    call    016eh
0160 c9        ret     

0161 21ee27    ld      hl,27eeh
0164 73        ld      (hl),e
0165 23        inc     hl
0166 72        ld      (hl),d
0167 2b        dec     hl
0168 2b        dec     hl
0169 1a        ld      a,(de)
016a 77        ld      (hl),a
016b c9        ret     

016c ff        rst     38h
016d ff        rst     38h
016e 7e        ld      a,(hl)
016f e5        push    hl
0170 21f027    ld      hl,27f0h
0173 77        ld      (hl),a
0174 af        xor     a
0175 ed6f      rld     
0177 cd8601    call    0186h
017a 02        ld      (bc),a
017b 03        inc     bc
017c af        xor     a
017d ed6f      rld     
017f cd8601    call    0186h
0182 02        ld      (bc),a
0183 03        inc     bc
0184 e1        pop     hl
0185 c9        ret     

0186 d5        push    de
0187 118f01    ld      de,018fh
018a 83        add     a,e
018b 5f        ld      e,a
018c 1a        ld      a,(de)
018d d1        pop     de
018e c9        ret     

018f c0        ret     nz

0190 f9        ld      sp,hl
0191 a4        and     h
0192 b0        or      b
0193 99        sbc     a,c
0194 92        sub     d
0195 82        add     a,d
0196 f8        ret     m

0197 80        add     a,b
0198 90        sub     b
0199 88        adc     a,b
019a 83        add     a,e
019b c6a1      add     a,0a1h
019d 86        add     a,(hl)
019e 8e        adc     a,(hl)
019f cd4001    call    0140h
01a2 13        inc     de
01a3 cd6101    call    0161h
01a6 21ef27    ld      hl,27efh
01a9 cd5201    call    0152h
01ac c31700    jp      0017h
01af cd4001    call    0140h
01b2 1b        dec     de
01b3 cd6101    call    0161h
01b6 21ef27    ld      hl,27efh
01b9 cd5201    call    0152h
01bc c31700    jp      0017h
01bf ff        rst     38h
01c0 ff        rst     38h
01c1 ff        rst     38h
01c2 ff        rst     38h
01c3 ff        rst     38h
01c4 ff        rst     38h
01c5 ff        rst     38h
01c6 ff        rst     38h
01c7 ff        rst     38h
01c8 3eff      ld      a,0ffh
01ca d303      out     (03h),a
01cc 3e7f      ld      a,7fh
01ce d301      out     (01h),a
01d0 21ed27    ld      hl,27edh
01d3 36c3      ld      (hl),0c3h
01d5 31f827    ld      sp,27f8h
01d8 f1        pop     af
01d9 e1        pop     hl
01da d1        pop     de
01db c1        pop     bc
01dc 31e427    ld      sp,27e4h
01df c3ed27    jp      27edh
01e2 21e527    ld      hl,27e5h
01e5 36fe      ld      (hl),0feh
01e7 c3f401    jp      01f4h
01ea 21e727    ld      hl,27e7h
01ed 36ff      ld      (hl),0ffh
01ef 23        inc     hl
01f0 36ff      ld      (hl),0ffh
01f2 23        inc     hl
01f3 c9        ret     

01f4 110403    ld      de,0304h
01f7 21e527    ld      hl,27e5h
01fa 34        inc     (hl)
01fb 34        inc     (hl)
01fc 7b        ld      a,e
01fd 86        add     a,(hl)
01fe 5f        ld      e,a
01ff 1a        ld      a,(de)
0200 6f        ld      l,a
0201 13        inc     de
0202 1a        ld      a,(de)
0203 67        ld      h,a
0204 e9        jp      (hl)
0205 21e527    ld      hl,27e5h
0208 111b03    ld      de,031bh
020b 7b        ld      a,e
020c 86        add     a,(hl)
020d c3fe01    jp      01feh
0210 cdea01    call    01eah
0213 3688      ld      (hl),88h
0215 23        inc     hl
0216 36b7      ld      (hl),0b7h
0218 21f927    ld      hl,27f9h
021b c31e02    jp      021eh
021e 01eb27    ld      bc,27ebh
0221 cd6e01    call    016eh
0224 c31700    jp      0017h
0227 21f927    ld      hl,27f9h
022a 78        ld      a,b
022b ed6f      rld     
022d c31e02    jp      021eh
0230 cdea01    call    01eah
0233 3683      ld      (hl),83h
0235 23        inc     hl
0236 36b7      ld      (hl),0b7h
0238 21ff27    ld      hl,27ffh
023b c31e02    jp      021eh
023e 21ff27    ld      hl,27ffh
0241 78        ld      a,b
0242 ed6f      rld     
0244 c31e02    jp      021eh
0247 cdea01    call    01eah
024a 36c6      ld      (hl),0c6h
024c 23        inc     hl
024d 36b7      ld      (hl),0b7h
024f 21fe27    ld      hl,27feh
0252 c31e02    jp      021eh
0255 21fe27    ld      hl,27feh
0258 78        ld      a,b
0259 ed6f      rld     
025b c31e02    jp      021eh
025e cdea01    call    01eah
0261 36a1      ld      (hl),0a1h
0263 23        inc     hl
0264 36b7      ld      (hl),0b7h
0266 21fd27    ld      hl,27fdh
0269 c31e02    jp      021eh
026c 21fd27    ld      hl,27fdh
026f 78        ld      a,b
0270 ed6f      rld     
0272 c31e02    jp      021eh
0275 cdea01    call    01eah
0278 3686      ld      (hl),86h
027a 23        inc     hl
027b 36b7      ld      (hl),0b7h
027d 21fc27    ld      hl,27fch
0280 c31e02    jp      021eh
0283 21fc27    ld      hl,27fch
0286 78        ld      a,b
0287 ed6f      rld     
0289 c31e02    jp      021eh
028c cdea01    call    01eah
028f 3689      ld      (hl),89h
0291 23        inc     hl
0292 36b7      ld      (hl),0b7h
0294 21fb27    ld      hl,27fbh
0297 c31e02    jp      021eh
029a 21fb27    ld      hl,27fbh
029d 78        ld      a,b
029e ed6f      rld     
02a0 c31e02    jp      021eh
02a3 cdea01    call    01eah
02a6 36c7      ld      (hl),0c7h
02a8 23        inc     hl
02a9 36b7      ld      (hl),0b7h
02ab 21fa27    ld      hl,27fah
02ae c31e02    jp      021eh
02b1 21fa27    ld      hl,27fah
02b4 78        ld      a,b
02b5 ed6f      rld     
02b7 c31e02    jp      021eh
02ba cdea01    call    01eah
02bd 368e      ld      (hl),8eh
02bf 23        inc     hl
02c0 36b7      ld      (hl),0b7h
02c2 21f827    ld      hl,27f8h
02c5 c31e02    jp      021eh
02c8 21f827    ld      hl,27f8h
02cb 78        ld      a,b
02cc ed6f      rld     
02ce c31e02    jp      021eh
02d1 ed57      ld      a,i
02d3 21f727    ld      hl,27f7h
02d6 77        ld      (hl),a
02d7 cdea01    call    01eah
02da 36f9      ld      (hl),0f9h
02dc 23        inc     hl
02dd 36b7      ld      (hl),0b7h
02df 21f727    ld      hl,27f7h
02e2 c31e02    jp      021eh
02e5 21f727    ld      hl,27f7h
02e8 78        ld      a,b
02e9 ed6f      rld     
02eb 7e        ld      a,(hl)
02ec ed47      ld      i,a
02ee c31e02    jp      021eh
02f1 01f227    ld      bc,27f2h
02f4 3ec3      ld      a,0c3h
02f6 02        ld      (bc),a
02f7 03        inc     bc
02f8 21ee27    ld      hl,27eeh
02fb 7e        ld      a,(hl)
02fc 02        ld      (bc),a
02fd 03        inc     bc
02fe 23        inc     hl
02ff 7e        ld      a,(hl)
0300 02        ld      (bc),a
0301 c31700    jp      0017h
0304 1002      djnz    0308h
0306 3002      jr      nc,030ah
0308 47        ld      b,a
0309 02        ld      (bc),a
030a 5e        ld      e,(hl)
030b 02        ld      (bc),a
030c 75        ld      (hl),l
030d 02        ld      (bc),a
030e 8c        adc     a,h
030f 02        ld      (bc),a
0310 a3        and     e
0311 02        ld      (bc),a
0312 ba        cp      d
0313 02        ld      (bc),a
0314 d1        pop     de
0315 02        ld      (bc),a
0316 1803      jr      031bh
0318 c3e201    jp      01e2h
031b 27        daa     
031c 02        ld      (bc),a
031d 3e02      ld      a,02h
031f 55        ld      d,l
0320 02        ld      (bc),a
0321 6c        ld      l,h
0322 02        ld      (bc),a
0323 83        add     a,e
0324 02        ld      (bc),a
0325 9a        sbc     a,d
0326 02        ld      (bc),a
0327 b1        or      c
0328 02        ld      (bc),a
0329 c8        ret     z

032a 02        ld      (bc),a
032b e5        push    hl
032c 02        ld      (bc),a
032d ff        rst     38h
032e ff        rst     38h
032f ff        rst     38h
0330 00        nop     
0331 010101    ld      bc,0101h
0334 010102    ld      bc,0201h
0337 010100    ld      bc,0001h
033a f5        push    af
033b 1eaf      ld      e,0afh
033d 9f        sbc     a,a
033e c8        ret     z

033f e2f10f    jp      po,0ff1h
0342 2f        cpl     
0343 17        rla     
0344 ff        rst     38h
0345 ff        rst     38h
0346 ff        rst     38h
0347 ff        rst     38h
0348 ff        rst     38h
0349 ff        rst     38h
034a ff        rst     38h
034b ff        rst     38h
034c ff        rst     38h
034d ff        rst     38h
034e ff        rst     38h
034f ff        rst     38h
0350 3e00      ld      a,00h
0352 325927    ld      (2759h),a
0355 219105    ld      hl,0591h
0358 115a27    ld      de,275ah
035b 010600    ld      bc,0006h
035e edb0      ldir    
0360 215a27    ld      hl,275ah
0363 0600      ld      b,00h
0365 1e06      ld      e,06h
0367 3e01      ld      a,01h
0369 cd9000    call    0090h
036c 79        ld      a,c
036d 87        add     a,a
036e 1d        dec     e
036f 20f8      jr      nz,0369h
0371 78        ld      a,b
0372 fe00      cp      00h
0374 28ea      jr      z,0360h
0376 215a27    ld      hl,275ah
0379 cd9c00    call    009ch
037c 7a        ld      a,d
037d d303      out     (03h),a
037f db01      in      a,(01h)
0381 fe00      cp      00h
0383 20f1      jr      nz,0376h
0385 cdbd00    call    00bdh
0388 cdd800    call    00d8h
038b fe14      cp      14h
038d cab403    jp      z,03b4h
0390 fe10      cp      10h
0392 3810      jr      c,03a4h
0394 fe13      cp      13h
0396 2803      jr      z,039bh
0398 c36003    jp      0360h
039b 3a5927    ld      a,(2759h)
039e fe00      cp      00h
03a0 caa304    jp      z,04a3h
03a3 c7        rst     00h
03a4 3a5927    ld      a,(2759h)
03a7 fe00      cp      00h
03a9 282f      jr      z,03dah
03ab fe01      cp      01h
03ad 2830      jr      z,03dfh
03af fe02      cp      02h
03b1 2831      jr      z,03e4h
03b3 c7        rst     00h
03b4 3a5927    ld      a,(2759h)
03b7 fe00      cp      00h
03b9 2809      jr      z,03c4h
03bb fe01      cp      01h
03bd 2810      jr      z,03cfh
03bf fe02      cp      02h
03c1 283c      jr      z,03ffh
03c3 c7        rst     00h
03c4 219705    ld      hl,0597h
03c7 3e01      ld      a,01h
03c9 325927    ld      (2759h),a
03cc c35803    jp      0358h
03cf 219d05    ld      hl,059dh
03d2 3e02      ld      a,02h
03d4 325927    ld      (2759h),a
03d7 c35803    jp      0358h
03da 215027    ld      hl,2750h
03dd 1808      jr      03e7h
03df 215227    ld      hl,2752h
03e2 1803      jr      03e7h
03e4 215427    ld      hl,2754h
03e7 78        ld      a,b
03e8 e5        push    hl
03e9 ed6f      rld     
03eb 23        inc     hl
03ec ed6f      rld     
03ee 015c27    ld      bc,275ch
03f1 e1        pop     hl
03f2 cd6e01    call    016eh
03f5 23        inc     hl
03f6 015a27    ld      bc,275ah
03f9 cd6e01    call    016eh
03fc c36003    jp      0360h
03ff 3eff      ld      a,0ffh
0401 d303      out     (03h),a
0403 3ef7      ld      a,0f7h
0405 d301      out     (01h),a
0407 cd3404    call    0434h
040a da7505    jp      c,0575h
040d 325627    ld      (2756h),a
0410 21a00f    ld      hl,0fa0h
0413 cd8b04    call    048bh
0416 215027    ld      hl,2750h
0419 010700    ld      bc,0007h
041c cd5404    call    0454h
041f 21a00f    ld      hl,0fa0h
0422 cd8f04    call    048fh
0425 cd4104    call    0441h
0428 cd5404    call    0454h
042b 21a00f    ld      hl,0fa0h
042e cd8f04    call    048fh
0431 c37d05    jp      057dh
0434 cd4104    call    0441h
0437 d8        ret     c

0438 af        xor     a
0439 86        add     a,(hl)
043a eda1      cpi     
043c ea3904    jp      pe,0439h
043f b7        or      a
0440 c9        ret     

0441 215227    ld      hl,2752h
0444 5e        ld      e,(hl)
0445 23        inc     hl
0446 56        ld      d,(hl)
0447 23        inc     hl
0448 4e        ld      c,(hl)
0449 23        inc     hl
044a 66        ld      h,(hl)
044b 69        ld      l,c
044c b7        or      a
044d ed52      sbc     hl,de
044f 4d        ld      c,l
0450 44        ld      b,h
0451 03        inc     bc
0452 eb        ex      de,hl
0453 c9        ret     

0454 5e        ld      e,(hl)
0455 cd5e04    call    045eh
0458 eda1      cpi     
045a ea5404    jp      pe,0454h
045d c9        ret     

045e 1608      ld      d,08h
0460 b7        or      a
0461 cd7104    call    0471h
0464 cb1b      rr      e
0466 cd7104    call    0471h
0469 15        dec     d
046a 20f8      jr      nz,0464h
046c 37        scf     
046d cd7104    call    0471h
0470 c9        ret     

0471 d9        exx     
0472 2600      ld      h,00h
0474 3809      jr      c,047fh
0476 2e10      ld      l,10h
0478 cd8f04    call    048fh
047b 2e04      ld      l,04h
047d 1807      jr      0486h
047f 2e08      ld      l,08h
0481 cd8f04    call    048fh
0484 2e08      ld      l,08h
0486 cd8b04    call    048bh
0489 d9        exx     
048a c9        ret     

048b 0e9a      ld      c,9ah
048d 1802      jr      0491h
048f 0e4d      ld      c,4dh
0491 29        add     hl,hl
0492 110100    ld      de,0001h
0495 3eff      ld      a,0ffh
0497 d304      out     (04h),a
0499 41        ld      b,c
049a 10fe      djnz    049ah
049c ee40      xor     40h
049e ed52      sbc     hl,de
04a0 20f5      jr      nz,0497h
04a2 c9        ret     

04a3 2a5027    ld      hl,(2750h)
04a6 225727    ld      (2757h),hl
04a9 3eff      ld      a,0ffh
04ab d303      out     (03h),a
04ad 3ebf      ld      a,0bfh
04af d301      out     (01h),a
04b1 21e803    ld      hl,03e8h
04b4 cd1705    call    0517h
04b7 38f0      jr      c,04a9h
04b9 2b        dec     hl
04ba 7c        ld      a,h
04bb b5        or      l
04bc 20f6      jr      nz,04b4h
04be cd1705    call    0517h
04c1 30fb      jr      nc,04beh
04c3 215027    ld      hl,2750h
04c6 010700    ld      bc,0007h
04c9 cd3205    call    0532h
04cc 38df      jr      c,04adh
04ce 015c27    ld      bc,275ch
04d1 215027    ld      hl,2750h
04d4 cd6e01    call    016eh
04d7 23        inc     hl
04d8 015a27    ld      bc,275ah
04db cd6e01    call    016eh
04de ed5b5027  ld      de,(2750h)
04e2 0620      ld      b,20h
04e4 215a27    ld      hl,275ah
04e7 cd9c00    call    009ch
04ea 10f8      djnz    04e4h
04ec 2a5727    ld      hl,(2757h)
04ef 00        nop     
04f0 b7        or      a
04f1 ed52      sbc     hl,de
04f3 c2a904    jp      nz,04a9h
04f6 3eff      ld      a,0ffh
04f8 d303      out     (03h),a
04fa 3efe      ld      a,0feh
04fc d301      out     (01h),a
04fe cd4104    call    0441h
0501 da7505    jp      c,0575h
0504 cd3205    call    0532h
0507 da7505    jp      c,0575h
050a cd3404    call    0434h
050d 215627    ld      hl,2756h
0510 be        cp      (hl)
0511 c27505    jp      nz,0575h
0514 c37d05    jp      057dh
0517 110000    ld      de,0000h
051a db02      in      a,(02h)
051c 13        inc     de
051d 17        rla     
051e 38fa      jr      c,051ah
0520 3ebf      ld      a,0bfh
0522 d304      out     (04h),a
0524 db02      in      a,(02h)
0526 13        inc     de
0527 17        rla     
0528 30fa      jr      nc,0524h
052a 3eff      ld      a,0ffh
052c d304      out     (04h),a
052e 7b        ld      a,e
052f fe66      cp      66h
0531 c9        ret     

0532 af        xor     a
0533 08        ex      af,af'
0534 cd3f05    call    053fh
0537 73        ld      (hl),e
0538 eda1      cpi     
053a ea3405    jp      pe,0534h
053d 08        ex      af,af'
053e c9        ret     

053f cd5005    call    0550h
0542 1608      ld      d,08h
0544 cd5005    call    0550h
0547 cb1b      rr      e
0549 15        dec     d
054a 20f8      jr      nz,0544h
054c cd5005    call    0550h
054f c9        ret     

0550 d9        exx     
0551 210000    ld      hl,0000h
0554 cd1705    call    0517h
0557 14        inc     d
0558 15        dec     d
0559 2011      jr      nz,056ch
055b 3806      jr      c,0563h
055d 2d        dec     l
055e 2d        dec     l
055f cbc4      set     0,h
0561 18f1      jr      0554h
0563 2c        inc     l
0564 cb44      bit     0,h
0566 28ec      jr      z,0554h
0568 cb15      rl      l
056a d9        exx     
056b c9        ret     

056c 08        ex      af,af'
056d 37        scf     
056e 08        ex      af,af'
056f d9        exx     
0570 c9        ret     

0571 ff        rst     38h
0572 ff        rst     38h
0573 ff        rst     38h
0574 ff        rst     38h
0575 218505    ld      hl,0585h
0578 cd9c00    call    009ch
057b 18f8      jr      0575h
057d 218b05    ld      hl,058bh
0580 cd9c00    call    009ch
0583 18f8      jr      057dh
0585 86        add     a,(hl)
0586 cece      adc     a,0ceh
0588 c0        ret     nz

0589 ff        rst     38h
058a ff        rst     38h
058b 8e        adc     a,(hl)
058c f9        ld      sp,hl
058d c8        ret     z

058e ff        rst     38h
058f ff        rst     38h
0590 ff        rst     38h
0591 8e        adc     a,(hl)
0592 f9        ld      sp,hl
0593 c7        rst     00h
0594 86        add     a,(hl)
0595 ff        rst     38h
0596 ff        rst     38h
0597 8e        adc     a,(hl)
0598 c0        ret     nz

0599 c8        ret     z

059a 87        add     a,a
059b 86        add     a,(hl)
059c ff        rst     38h
059d 8e        adc     a,(hl)
059e f9        ld      sp,hl
059f c8        ret     z

05a0 88        adc     a,b
05a1 c7        rst     00h
05a2 ff        rst     38h
05a3 ff        rst     38h
05a4 ff        rst     38h
05a5 ff        rst     38h
05a6 ff        rst     38h
05a7 ff        rst     38h
05a8 ff        rst     38h
05a9 ff        rst     38h
05aa ff        rst     38h
05ab ff        rst     38h
05ac ff        rst     38h
05ad ff        rst     38h
05ae ff        rst     38h
05af ff        rst     38h
05b0 ff        rst     38h
05b1 ff        rst     38h
05b2 ff        rst     38h
05b3 ff        rst     38h
05b4 ff        rst     38h
05b5 ff        rst     38h
05b6 ff        rst     38h
05b7 ff        rst     38h
05b8 ff        rst     38h
05b9 ff        rst     38h
05ba ff        rst     38h
05bb ff        rst     38h
05bc ff        rst     38h
05bd ff        rst     38h
05be ff        rst     38h
05bf ff        rst     38h
05c0 ff        rst     38h
05c1 ff        rst     38h
05c2 ff        rst     38h
05c3 ff        rst     38h
05c4 ff        rst     38h
05c5 ff        rst     38h
05c6 ff        rst     38h
05c7 ff        rst     38h
05c8 ff        rst     38h
05c9 ff        rst     38h
05ca ff        rst     38h
05cb ff        rst     38h
05cc ff        rst     38h
05cd ff        rst     38h
05ce ff        rst     38h
05cf ff        rst     38h
05d0 ff        rst     38h
05d1 ff        rst     38h
05d2 ff        rst     38h
05d3 ff        rst     38h
05d4 ff        rst     38h
05d5 ff        rst     38h
05d6 ff        rst     38h
05d7 ff        rst     38h
05d8 ff        rst     38h
05d9 ff        rst     38h
05da ff        rst     38h
05db ff        rst     38h
05dc ff        rst     38h
05dd ff        rst     38h
05de ff        rst     38h
05df ff        rst     38h
05e0 ff        rst     38h
05e1 ff        rst     38h
05e2 ff        rst     38h
05e3 ff        rst     38h
05e4 ff        rst     38h
05e5 ff        rst     38h
05e6 ff        rst     38h
05e7 ff        rst     38h
05e8 ff        rst     38h
05e9 ff        rst     38h
05ea ff        rst     38h
05eb ff        rst     38h
05ec ff        rst     38h
05ed ff        rst     38h
05ee ff        rst     38h
05ef ff        rst     38h
05f0 ff        rst     38h
05f1 ff        rst     38h
05f2 ff        rst     38h
05f3 ff        rst     38h
05f4 ff        rst     38h
05f5 ff        rst     38h
05f6 ff        rst     38h
05f7 ff        rst     38h
05f8 ff        rst     38h
05f9 ff        rst     38h
05fa ff        rst     38h
05fb ff        rst     38h
05fc ff        rst     38h
05fd ff        rst     38h
05fe ff        rst     38h
05ff ff        rst     38h
0600 ff        rst     38h
0601 ff        rst     38h
0602 ff        rst     38h
0603 ff        rst     38h
0604 ff        rst     38h
0605 ff        rst     38h
0606 ff        rst     38h
0607 ff        rst     38h
0608 ff        rst     38h
0609 ff        rst     38h
060a ff        rst     38h
060b ff        rst     38h
060c ff        rst     38h
060d ff        rst     38h
060e ff        rst     38h
060f ff        rst     38h
0610 ff        rst     38h
0611 ff        rst     38h
0612 ff        rst     38h
0613 ff        rst     38h
0614 ff        rst     38h
0615 ff        rst     38h
0616 ff        rst     38h
0617 ff        rst     38h
0618 ff        rst     38h
0619 ff        rst     38h
061a ff        rst     38h
061b ff        rst     38h
061c ff        rst     38h
061d ff        rst     38h
061e ff        rst     38h
061f ff        rst     38h
0620 ff        rst     38h
0621 ff        rst     38h
0622 ff        rst     38h
0623 ff        rst     38h
0624 ff        rst     38h
0625 ff        rst     38h
0626 ff        rst     38h
0627 ff        rst     38h
0628 ff        rst     38h
0629 ff        rst     38h
062a ff        rst     38h
062b ff        rst     38h
062c ff        rst     38h
062d ff        rst     38h
062e ff        rst     38h
062f ff        rst     38h
0630 ff        rst     38h
0631 ff        rst     38h
0632 ff        rst     38h
0633 ff        rst     38h
0634 ff        rst     38h
0635 ff        rst     38h
0636 ff        rst     38h
0637 ff        rst     38h
0638 ff        rst     38h
0639 ff        rst     38h
063a ff        rst     38h
063b ff        rst     38h
063c ff        rst     38h
063d ff        rst     38h
063e ff        rst     38h
063f ff        rst     38h
0640 ff        rst     38h
0641 ff        rst     38h
0642 ff        rst     38h
0643 ff        rst     38h
0644 ff        rst     38h
0645 ff        rst     38h
0646 ff        rst     38h
0647 ff        rst     38h
0648 ff        rst     38h
0649 ff        rst     38h
064a ff        rst     38h
064b ff        rst     38h
064c ff        rst     38h
064d ff        rst     38h
064e ff        rst     38h
064f ff        rst     38h
0650 ff        rst     38h
0651 ff        rst     38h
0652 ff        rst     38h
0653 ff        rst     38h
0654 ff        rst     38h
0655 ff        rst     38h
0656 ff        rst     38h
0657 ff        rst     38h
0658 ff        rst     38h
0659 ff        rst     38h
065a ff        rst     38h
065b ff        rst     38h
065c ff        rst     38h
065d ff        rst     38h
065e ff        rst     38h
065f ff        rst     38h
0660 ff        rst     38h
0661 ff        rst     38h
0662 ff        rst     38h
0663 ff        rst     38h
0664 ff        rst     38h
0665 ff        rst     38h
0666 ff        rst     38h
0667 ff        rst     38h
0668 ff        rst     38h
0669 ff        rst     38h
066a ff        rst     38h
066b ff        rst     38h
066c ff        rst     38h
066d ff        rst     38h
066e ff        rst     38h
066f ff        rst     38h
0670 ff        rst     38h
0671 ff        rst     38h
0672 ff        rst     38h
0673 ff        rst     38h
0674 ff        rst     38h
0675 ff        rst     38h
0676 ff        rst     38h
0677 ff        rst     38h
0678 ff        rst     38h
0679 ff        rst     38h
067a ff        rst     38h
067b ff        rst     38h
067c ff        rst     38h
067d ff        rst     38h
067e ff        rst     38h
067f ff        rst     38h
0680 ff        rst     38h
0681 ff        rst     38h
0682 ff        rst     38h
0683 ff        rst     38h
0684 ff        rst     38h
0685 ff        rst     38h
0686 ff        rst     38h
0687 ff        rst     38h
0688 ff        rst     38h
0689 ff        rst     38h
068a ff        rst     38h
068b ff        rst     38h
068c ff        rst     38h
068d ff        rst     38h
068e ff        rst     38h
068f ff        rst     38h
0690 ff        rst     38h
0691 ff        rst     38h
0692 ff        rst     38h
0693 ff        rst     38h
0694 ff        rst     38h
0695 ff        rst     38h
0696 ff        rst     38h
0697 ff        rst     38h
0698 ff        rst     38h
0699 ff        rst     38h
069a ff        rst     38h
069b ff        rst     38h
069c ff        rst     38h
069d ff        rst     38h
069e ff        rst     38h
069f ff        rst     38h
06a0 ff        rst     38h
06a1 ff        rst     38h
06a2 ff        rst     38h
06a3 ff        rst     38h
06a4 ff        rst     38h
06a5 ff        rst     38h
06a6 ff        rst     38h
06a7 ff        rst     38h
06a8 ff        rst     38h
06a9 ff        rst     38h
06aa ff        rst     38h
06ab ff        rst     38h
06ac ff        rst     38h
06ad ff        rst     38h
06ae ff        rst     38h
06af ff        rst     38h
06b0 ff        rst     38h
06b1 ff        rst     38h
06b2 ff        rst     38h
06b3 ff        rst     38h
06b4 ff        rst     38h
06b5 ff        rst     38h
06b6 ff        rst     38h
06b7 ff        rst     38h
06b8 ff        rst     38h
06b9 ff        rst     38h
06ba ff        rst     38h
06bb ff        rst     38h
06bc ff        rst     38h
06bd ff        rst     38h
06be ff        rst     38h
06bf ff        rst     38h
06c0 ff        rst     38h
06c1 ff        rst     38h
06c2 ff        rst     38h
06c3 ff        rst     38h
06c4 ff        rst     38h
06c5 ff        rst     38h
06c6 ff        rst     38h
06c7 ff        rst     38h
06c8 ff        rst     38h
06c9 ff        rst     38h
06ca ff        rst     38h
06cb ff        rst     38h
06cc ff        rst     38h
06cd ff        rst     38h
06ce ff        rst     38h
06cf ff        rst     38h
06d0 ff        rst     38h
06d1 ff        rst     38h
06d2 ff        rst     38h
06d3 ff        rst     38h
06d4 ff        rst     38h
06d5 ff        rst     38h
06d6 ff        rst     38h
06d7 ff        rst     38h
06d8 ff        rst     38h
06d9 ff        rst     38h
06da ff        rst     38h
06db ff        rst     38h
06dc ff        rst     38h
06dd ff        rst     38h
06de ff        rst     38h
06df ff        rst     38h
06e0 ff        rst     38h
06e1 ff        rst     38h
06e2 ff        rst     38h
06e3 ff        rst     38h
06e4 ff        rst     38h
06e5 ff        rst     38h
06e6 ff        rst     38h
06e7 ff        rst     38h
06e8 ff        rst     38h
06e9 ff        rst     38h
06ea ff        rst     38h
06eb ff        rst     38h
06ec ff        rst     38h
06ed ff        rst     38h
06ee ff        rst     38h
06ef ff        rst     38h
06f0 ff        rst     38h
06f1 ff        rst     38h
06f2 ff        rst     38h
06f3 ff        rst     38h
06f4 ff        rst     38h
06f5 ff        rst     38h
06f6 ff        rst     38h
06f7 ff        rst     38h
06f8 ff        rst     38h
06f9 ff        rst     38h
06fa ff        rst     38h
06fb ff        rst     38h
06fc ff        rst     38h
06fd ff        rst     38h
06fe ff        rst     38h
06ff ff        rst     38h
0700 ff        rst     38h
0701 ff        rst     38h
0702 ff        rst     38h
0703 ff        rst     38h
0704 ff        rst     38h
0705 ff        rst     38h
0706 ff        rst     38h
0707 ff        rst     38h
0708 ff        rst     38h
0709 ff        rst     38h
070a ff        rst     38h
070b ff        rst     38h
070c ff        rst     38h
070d ff        rst     38h
070e ff        rst     38h
070f ff        rst     38h
0710 ff        rst     38h
0711 ff        rst     38h
0712 ff        rst     38h
0713 ff        rst     38h
0714 ff        rst     38h
0715 ff        rst     38h
0716 ff        rst     38h
0717 ff        rst     38h
0718 ff        rst     38h
0719 ff        rst     38h
071a ff        rst     38h
071b ff        rst     38h
071c ff        rst     38h
071d ff        rst     38h
071e ff        rst     38h
071f ff        rst     38h
0720 ff        rst     38h
0721 ff        rst     38h
0722 ff        rst     38h
0723 ff        rst     38h
0724 ff        rst     38h
0725 ff        rst     38h
0726 ff        rst     38h
0727 ff        rst     38h
0728 ff        rst     38h
0729 ff        rst     38h
072a ff        rst     38h
072b ff        rst     38h
072c ff        rst     38h
072d ff        rst     38h
072e ff        rst     38h
072f ff        rst     38h
0730 ff        rst     38h
0731 ff        rst     38h
0732 ff        rst     38h
0733 ff        rst     38h
0734 ff        rst     38h
0735 ff        rst     38h
0736 ff        rst     38h
0737 ff        rst     38h
0738 ff        rst     38h
0739 ff        rst     38h
073a ff        rst     38h
073b ff        rst     38h
073c ff        rst     38h
073d ff        rst     38h
073e ff        rst     38h
073f ff        rst     38h
0740 ff        rst     38h
0741 ff        rst     38h
0742 ff        rst     38h
0743 ff        rst     38h
0744 ff        rst     38h
0745 ff        rst     38h
0746 ff        rst     38h
0747 ff        rst     38h
0748 ff        rst     38h
0749 ff        rst     38h
074a ff        rst     38h
074b ff        rst     38h
074c ff        rst     38h
074d ff        rst     38h
074e ff        rst     38h
074f ff        rst     38h
0750 ff        rst     38h
0751 ff        rst     38h
0752 ff        rst     38h
0753 ff        rst     38h
0754 ff        rst     38h
0755 ff        rst     38h
0756 ff        rst     38h
0757 ff        rst     38h
0758 ff        rst     38h
0759 ff        rst     38h
075a ff        rst     38h
075b ff        rst     38h
075c ff        rst     38h
075d ff        rst     38h
075e ff        rst     38h
075f ff        rst     38h
0760 ff        rst     38h
0761 ff        rst     38h
0762 ff        rst     38h
0763 ff        rst     38h
0764 ff        rst     38h
0765 ff        rst     38h
0766 ff        rst     38h
0767 ff        rst     38h
0768 ff        rst     38h
0769 ff        rst     38h
076a ff        rst     38h
076b ff        rst     38h
076c ff        rst     38h
076d ff        rst     38h
076e ff        rst     38h
076f ff        rst     38h
0770 ff        rst     38h
0771 ff        rst     38h
0772 ff        rst     38h
0773 ff        rst     38h
0774 ff        rst     38h
0775 ff        rst     38h
0776 ff        rst     38h
0777 ff        rst     38h
0778 ff        rst     38h
0779 ff        rst     38h
077a ff        rst     38h
077b ff        rst     38h
077c ff        rst     38h
077d ff        rst     38h
077e ff        rst     38h
077f ff        rst     38h
0780 ff        rst     38h
0781 ff        rst     38h
0782 ff        rst     38h
0783 ff        rst     38h
0784 ff        rst     38h
0785 ff        rst     38h
0786 ff        rst     38h
0787 ff        rst     38h
0788 ff        rst     38h
0789 ff        rst     38h
078a ff        rst     38h
078b ff        rst     38h
078c ff        rst     38h
078d ff        rst     38h
078e ff        rst     38h
078f ff        rst     38h
0790 ff        rst     38h
0791 ff        rst     38h
0792 ff        rst     38h
0793 ff        rst     38h
0794 ff        rst     38h
0795 ff        rst     38h
0796 ff        rst     38h
0797 ff        rst     38h
0798 ff        rst     38h
0799 ff        rst     38h
079a ff        rst     38h
079b ff        rst     38h
079c ff        rst     38h
079d ff        rst     38h
079e ff        rst     38h
079f ff        rst     38h
07a0 ff        rst     38h
07a1 ff        rst     38h
07a2 ff        rst     38h
07a3 ff        rst     38h
07a4 ff        rst     38h
07a5 ff        rst     38h
07a6 ff        rst     38h
07a7 ff        rst     38h
07a8 ff        rst     38h
07a9 ff        rst     38h
07aa ff        rst     38h
07ab ff        rst     38h
07ac ff        rst     38h
07ad ff        rst     38h
07ae ff        rst     38h
07af ff        rst     38h
07b0 ff        rst     38h
07b1 ff        rst     38h
07b2 ff        rst     38h
07b3 ff        rst     38h
07b4 ff        rst     38h
07b5 ff        rst     38h
07b6 ff        rst     38h
07b7 ff        rst     38h
07b8 ff        rst     38h
07b9 ff        rst     38h
07ba ff        rst     38h
07bb ff        rst     38h
07bc ff        rst     38h
07bd ff        rst     38h
07be ff        rst     38h
07bf ff        rst     38h
07c0 ff        rst     38h
07c1 ff        rst     38h
07c2 ff        rst     38h
07c3 ff        rst     38h
07c4 ff        rst     38h
07c5 ff        rst     38h
07c6 ff        rst     38h
07c7 ff        rst     38h
07c8 ff        rst     38h
07c9 ff        rst     38h
07ca ff        rst     38h
07cb ff        rst     38h
07cc ff        rst     38h
07cd ff        rst     38h
07ce ff        rst     38h
07cf ff        rst     38h
07d0 ff        rst     38h
07d1 ff        rst     38h
07d2 ff        rst     38h
07d3 ff        rst     38h
07d4 ff        rst     38h
07d5 ff        rst     38h
07d6 ff        rst     38h
07d7 ff        rst     38h
07d8 ff        rst     38h
07d9 ff        rst     38h
07da ff        rst     38h
07db ff        rst     38h
07dc ff        rst     38h
07dd ff        rst     38h
07de ff        rst     38h
07df ff        rst     38h
07e0 ff        rst     38h
07e1 ff        rst     38h
07e2 ff        rst     38h
07e3 ff        rst     38h
07e4 ff        rst     38h
07e5 ff        rst     38h
07e6 ff        rst     38h
07e7 ff        rst     38h
07e8 ff        rst     38h
07e9 ff        rst     38h
07ea ff        rst     38h
07eb ff        rst     38h
07ec ff        rst     38h
07ed ff        rst     38h
07ee ff        rst     38h
07ef ff        rst     38h
07f0 ff        rst     38h
07f1 ff        rst     38h
07f2 ff        rst     38h
07f3 ff        rst     38h
07f4 ff        rst     38h
07f5 ff        rst     38h
07f6 ff        rst     38h
07f7 ff        rst     38h
07f8 ff        rst     38h
07f9 ff        rst     38h
07fa ff        rst     38h
07fb ff        rst     38h
07fc ff        rst     38h
07fd ff        rst     38h
07fe ff        rst     38h
07ff ff        rst     38h
